; Function Attrs: mustprogress uwtable
define noundef zeroext i1 @_ZNK8facebook4yoga6Config28isExperimentalFeatureEnabledENS0_19ExperimentalFeatureE(ptr noundef nonnull readonly align 8 captures(none) dereferenceable(48) %0, i8 noundef zeroext %1) local_unnamed_addr #2 align 2 {
  %.not.i.i = icmp eq i8 %1, 0
  br i1 %.not.i.i, label %_ZNKSt6bitsetILm1EE4testEm.exit, label %3

3:                                                ; preds = %2
  %4 = zext i8 %1 to i64
  tail call void (ptr, ...) @_ZSt24__throw_out_of_range_fmtPKcz(ptr noundef nonnull @.str.1, ptr noundef nonnull @.str.2, i64 noundef %4, i64 noundef 1) #8
  unreachable

_ZNKSt6bitsetILm1EE4testEm.exit:                  ; preds = %2
  %5 = getelementptr inbounds nuw i8, ptr %0, i64 24
  %6 = load i64, ptr %5, align 8, !tbaa !17
  %7 = and i64 %6, 1
  %8 = icmp ne i64 %7, 0
  ret i1 %8
}